target datalayout = "e-m:e-p270:32:32-p271:32:32-p272:64:64-i64:64-i128:128-f80:128-n8:16:32:64-S128"
target triple = "x86_64-pc-linux-gnu"

@proto_register_1722_61883.ett = internal global [4 x ptr] [ptr @ett_1722_61883, ptr @ett_1722_61883_audio, ptr @ett_1722_61883_sample, ptr @ett_1722_61883_video], align 16
@.str.110 = private unnamed_addr constant [19 x i8] c"IEC 61883 Protocol\00", align 1
@.str.111 = private unnamed_addr constant [10 x i8] c"IEC 61883\00", align 1
@.str.112 = private unnamed_addr constant [9 x i8] c"iec61883\00", align 1
@proto_1722_61883 = internal global i32 0, align 4
@avb1722_61883_handle = internal global ptr null, align 8

; Function Attrs: null_pointer_is_valid sspstrong uwtable
define hidden void @proto_register_1722_61883() #0 {
  %1 = alloca ptr, align 8
  call void @llvm.lifetime.start.p0(i64 8, ptr %1) #9
  %2 = call i32 @proto_register_protocol(ptr noundef @.str.110, ptr noundef @.str.111, ptr noundef @.str.112)
  store i32 %2, ptr @proto_1722_61883, align 4
  %3 = load i32, ptr @proto_1722_61883, align 4
  call void @proto_register_field_array(i32 noundef %3, ptr noundef @proto_register_1722_61883.hf, i32 noundef 31)
  call void @proto_register_subtree_array(ptr noundef @proto_register_1722_61883.ett, i32 noundef 4)
  %4 = load i32, ptr @proto_1722_61883, align 4
  %5 = call ptr @expert_register_protocol(i32 noundef %4)
  store ptr %5, ptr %1, align 8
  %6 = load ptr, ptr %1, align 8
  call void @expert_register_field_array(ptr noundef %6, ptr noundef @proto_register_1722_61883.ei, i32 noundef 14)
  %7 = load i32, ptr @proto_1722_61883, align 4
  %8 = call ptr @register_dissector(ptr noundef @.str.112, ptr noundef @dissect_1722_61883, i32 noundef %7)
  store ptr %8, ptr @avb1722_61883_handle, align 8
  call void @llvm.lifetime.end.p0(i64 8, ptr %1) #9
  ret void
}